; Function Attrs: mustprogress uwtable
define void @_ZN7openvdb5v11_02io14getErrorStringB5cxx11Ei(ptr noalias sret(%"class.std::__cxx11::basic_string") align 8 %agg.result, i32 noundef %errorNum) local_unnamed_addr #6 {
entry:
  %call = tail call noundef nonnull align 8 dereferenceable(8) ptr @_ZNSt3_V216generic_categoryEv() #40
  %vtable.i = load ptr, ptr %call, align 8, !noalias !16
  %vfn.i = getelementptr inbounds i8, ptr %vtable.i, i64 32
  %0 = load ptr, ptr %vfn.i, align 8, !noalias !16
  tail call void %0(ptr sret(%"class.std::__cxx11::basic_string") align 8 %agg.result, ptr noundef nonnull align 8 dereferenceable(8) %call, i32 noundef %errorNum)
  ret void
}